
segment_test.o:     file format elf64-x86-64


Disassembly of section .text:

0000000000000000 <main>:
   0:	f3 0f 1e fa          	endbr64
   4:	55                   	push   %rbp
   5:	48 89 e5             	mov    %rsp,%rbp
   8:	48 83 ec 20          	sub    $0x20,%rsp
   c:	64 48 8b 04 25 28 00 	mov    %fs:0x28,%rax
  13:	00 00 
  15:	48 89 45 f8          	mov    %rax,-0x8(%rbp)
  19:	31 c0                	xor    %eax,%eax
  1b:	c7 45 ec 00 00 00 00 	movl   $0x0,-0x14(%rbp)
  22:	c7 45 f0 6f 00 00 00 	movl   $0x6f,-0x10(%rbp)
  29:	b8 00 00 00 00       	mov    $0x0,%eax
  2e:	e8 00 00 00 00       	call   33 <main+0x33>
  33:	48 8d 55 ec          	lea    -0x14(%rbp),%rdx
  37:	48 8d 45 f4          	lea    -0xc(%rbp),%rax
  3b:	50                   	push   %rax
  3c:	48 8d 45 f0          	lea    -0x10(%rbp),%rax
  40:	50                   	push   %rax
  41:	49 89 d1             	mov    %rdx,%r9
  44:	4c 8d 05 00 00 00 00 	lea    0x0(%rip),%r8        # 4b <main+0x4b>
  4b:	48 8d 05 00 00 00 00 	lea    0x0(%rip),%rax        # 52 <main+0x52>
  52:	48 89 c1             	mov    %rax,%rcx
  55:	48 8d 05 00 00 00 00 	lea    0x0(%rip),%rax        # 5c <main+0x5c>
  5c:	48 89 c2             	mov    %rax,%rdx
  5f:	48 8d 05 00 00 00 00 	lea    0x0(%rip),%rax        # 66 <main+0x66>
  66:	48 89 c6             	mov    %rax,%rsi
  69:	48 8d 05 00 00 00 00 	lea    0x0(%rip),%rax        # 70 <main+0x70>
  70:	48 89 c7             	mov    %rax,%rdi
  73:	b8 00 00 00 00       	mov    $0x0,%eax
  78:	e8 00 00 00 00       	call   7d <main+0x7d>
  7d:	48 83 c4 10          	add    $0x10,%rsp
  81:	48 8d 05 00 00 00 00 	lea    0x0(%rip),%rax        # 88 <main+0x88>
  88:	48 89 c2             	mov    %rax,%rdx
  8b:	48 8d 05 00 00 00 00 	lea    0x0(%rip),%rax        # 92 <main+0x92>
  92:	48 89 c6             	mov    %rax,%rsi
  95:	48 8d 05 00 00 00 00 	lea    0x0(%rip),%rax        # 9c <main+0x9c>
  9c:	48 89 c7             	mov    %rax,%rdi
  9f:	b8 00 00 00 00       	mov    $0x0,%eax
  a4:	e8 00 00 00 00       	call   a9 <main+0xa9>
  a9:	48 8d 05 00 00 00 00 	lea    0x0(%rip),%rax        # b0 <main+0xb0>
  b0:	48 89 c2             	mov    %rax,%rdx
  b3:	48 8b 05 00 00 00 00 	mov    0x0(%rip),%rax        # ba <main+0xba>
  ba:	48 89 c6             	mov    %rax,%rsi
  bd:	48 8d 05 00 00 00 00 	lea    0x0(%rip),%rax        # c4 <main+0xc4>
  c4:	48 89 c7             	mov    %rax,%rdi
  c7:	b8 00 00 00 00       	mov    $0x0,%eax
  cc:	e8 00 00 00 00       	call   d1 <main+0xd1>
  d1:	e8 00 00 00 00       	call   d6 <main+0xd6>
  d6:	b8 00 00 00 00       	mov    $0x0,%eax
  db:	48 8b 55 f8          	mov    -0x8(%rbp),%rdx
  df:	64 48 2b 14 25 28 00 	sub    %fs:0x28,%rdx
  e6:	00 00 
  e8:	74 05                	je     ef <main+0xef>
  ea:	e8 00 00 00 00       	call   ef <main+0xef>
  ef:	c9                   	leave
  f0:	c3                   	ret

Disassembly of section .data:

0000000000000000 <gvar2>:
   0:	0a 00                	or     (%rax),%al
	...

0000000000000004 <svar2>:
   4:	0b 00                	or     (%rax),%eax
	...

0000000000000008 <svar4.0>:
   8:	4c 04 00             	rex.WR add $0x0,%al
	...

Disassembly of section .rodata:

0000000000000000 <.rodata>:
   0:	0a 67 76             	or     0x76(%rdi),%ah
   3:	61                   	(bad)
   4:	72 31                	jb     37 <.rodata+0x37>
   6:	20 3d 20 25 70 20    	and    %bh,0x20702520(%rip)        # 2070252c <svar3.1+0x20702524>
   c:	2c 20                	sub    $0x20,%al
   e:	67 76 61             	addr32 jbe 72 <.rodata+0x72>
  11:	72 32                	jb     45 <.rodata+0x45>
  13:	20 3d 20 25 70 20    	and    %bh,0x20702520(%rip)        # 20702539 <svar3.1+0x20702531>
  19:	2c 20                	sub    $0x20,%al
  1b:	73 76                	jae    93 <svar3.1+0x8b>
  1d:	61                   	(bad)
  1e:	72 31                	jb     51 <.rodata+0x51>
  20:	20 3d 20 25 70 20    	and    %bh,0x20702520(%rip)        # 20702546 <svar3.1+0x2070253e>
  26:	2c 20                	sub    $0x20,%al
  28:	73 76                	jae    a0 <svar3.1+0x98>
  2a:	61                   	(bad)
  2b:	72 32                	jb     5f <.rodata+0x5f>
  2d:	20 3d 20 25 70 20    	and    %bh,0x20702520(%rip)        # 20702553 <svar3.1+0x2070254b>
  33:	2c 20                	sub    $0x20,%al
  35:	6c                   	insb   (%dx),%es:(%rdi)
  36:	76 61                	jbe    99 <svar3.1+0x91>
  38:	72 31                	jb     6b <.rodata+0x6b>
  3a:	20 3d 20 25 70 20    	and    %bh,0x20702520(%rip)        # 20702560 <svar3.1+0x20702558>
  40:	2c 20                	sub    $0x20,%al
  42:	6c                   	insb   (%dx),%es:(%rdi)
  43:	76 61                	jbe    a6 <svar3.1+0x9e>
  45:	72 32                	jb     79 <.rodata+0x79>
  47:	20 3d 20 25 70 20    	and    %bh,0x20702520(%rip)        # 2070256d <svar3.1+0x20702565>
  4d:	2c 20                	sub    $0x20,%al
  4f:	6c                   	insb   (%dx),%es:(%rdi)
  50:	76 61                	jbe    b3 <svar3.1+0xab>
  52:	72 33                	jb     87 <.rodata+0x87>
  54:	20 3d 20 25 70 0a    	and    %bh,0xa702520(%rip)        # a70257a <svar3.1+0xa702572>
  5a:	00 0a                	add    %cl,(%rdx)
  5c:	73 76                	jae    d4 <svar3.1+0xcc>
  5e:	61                   	(bad)
  5f:	72 33                	jb     94 <svar3.1+0x8c>
  61:	20 3d 20 25 70 20    	and    %bh,0x20702520(%rip)        # 20702587 <svar3.1+0x2070257f>
  67:	2c 20                	sub    $0x20,%al
  69:	73 76                	jae    e1 <svar3.1+0xd9>
  6b:	61                   	(bad)
  6c:	72 34                	jb     a2 <svar3.1+0x9a>
  6e:	20 3d 20 25 70 0a    	and    %bh,0xa702520(%rip)        # a702594 <svar3.1+0xa70258c>
  74:	00 0a                	add    %cl,(%rdx)
  76:	66 75 6e             	data16 jne e7 <svar3.1+0xdf>
  79:	63 74 69 6f          	movsxd 0x6f(%rcx,%rbp,2),%esi
  7d:	6e                   	outsb  %ds:(%rsi),(%dx)
  7e:	20 3d 20 25 70 20    	and    %bh,0x20702520(%rip)        # 207025a4 <svar3.1+0x2070259c>
  84:	2c 20                	sub    $0x20,%al
  86:	6d                   	insl   (%dx),%es:(%rdi)
  87:	61                   	(bad)
  88:	69 6e 20 3d 20 25 70 	imul   $0x7025203d,0x20(%rsi),%ebp
  8f:	0a 00                	or     (%rax),%al

Disassembly of section .comment:

0000000000000000 <.comment>:
   0:	00 47 43             	add    %al,0x43(%rdi)
   3:	43 3a 20             	rex.XB cmp (%r8),%spl
   6:	28 55 62             	sub    %dl,0x62(%rbp)
   9:	75 6e                	jne    79 <svar3.1+0x71>
   b:	74 75                	je     82 <svar3.1+0x7a>
   d:	20 31                	and    %dh,(%rcx)
   f:	33 2e                	xor    (%rsi),%ebp
  11:	33 2e                	xor    (%rsi),%ebp
  13:	30 2d 36 75 62 75    	xor    %ch,0x75627536(%rip)        # 7562754f <svar3.1+0x75627547>
  19:	6e                   	outsb  %ds:(%rsi),(%dx)
  1a:	74 75                	je     91 <svar3.1+0x89>
  1c:	32 7e 32             	xor    0x32(%rsi),%bh
  1f:	34 2e                	xor    $0x2e,%al
  21:	30 34 2e             	xor    %dh,(%rsi,%rbp,1)
  24:	31 29                	xor    %ebp,(%rcx)
  26:	20 31                	and    %dh,(%rcx)
  28:	33 2e                	xor    (%rsi),%ebp
  2a:	33 2e                	xor    (%rsi),%ebp
  2c:	30 00                	xor    %al,(%rax)

Disassembly of section .note.gnu.property:

0000000000000000 <.note.gnu.property>:
   0:	04 00                	add    $0x0,%al
   2:	00 00                	add    %al,(%rax)
   4:	10 00                	adc    %al,(%rax)
   6:	00 00                	add    %al,(%rax)
   8:	05 00 00 00 47       	add    $0x47000000,%eax
   d:	4e 55                	rex.WRX push %rbp
   f:	00 02                	add    %al,(%rdx)
  11:	00 00                	add    %al,(%rax)
  13:	c0 04 00 00          	rolb   $0x0,(%rax,%rax,1)
  17:	00 03                	add    %al,(%rbx)
  19:	00 00                	add    %al,(%rax)
  1b:	00 00                	add    %al,(%rax)
  1d:	00 00                	add    %al,(%rax)
	...

Disassembly of section .eh_frame:

0000000000000000 <.eh_frame>:
   0:	14 00                	adc    $0x0,%al
   2:	00 00                	add    %al,(%rax)
   4:	00 00                	add    %al,(%rax)
   6:	00 00                	add    %al,(%rax)
   8:	01 7a 52             	add    %edi,0x52(%rdx)
   b:	00 01                	add    %al,(%rcx)
   d:	78 10                	js     1f <.eh_frame+0x1f>
   f:	01 1b                	add    %ebx,(%rbx)
  11:	0c 07                	or     $0x7,%al
  13:	08 90 01 00 00 1c    	or     %dl,0x1c000001(%rax)
  19:	00 00                	add    %al,(%rax)
  1b:	00 1c 00             	add    %bl,(%rax,%rax,1)
  1e:	00 00                	add    %al,(%rax)
  20:	00 00                	add    %al,(%rax)
  22:	00 00                	add    %al,(%rax)
  24:	f1                   	int1
  25:	00 00                	add    %al,(%rax)
  27:	00 00                	add    %al,(%rax)
  29:	45 0e                	rex.RB (bad)
  2b:	10 86 02 43 0d 06    	adc    %al,0x60d4302(%rsi)
  31:	02 e8                	add    %al,%ch
  33:	0c 07                	or     $0x7,%al
  35:	08 00                	or     %al,(%rax)
	...
